(dp1
S'O1,O2'
p2
F2.6000000000000001
sS'CB2,H3'
p3
F2.2000000000000002
sS'O1,HA2'
p4
F2.2000000000000002
sS'C1,C2'
p5
F2.8999999999999999
sS'H2,O2'
p6
F2.2000000000000002
sS'N2,O2'
p7
F2.6000000000000001
sS'CB2,N3'
p8
F2.7999999999999998
sS'H2,C2'
p9
F2.2000000000000002
sS'O1,CA3'
p10
F2.7000000000000002
sS'C1,CB2'
p11
F3
sS'HA2,O2'
p12
F2.2000000000000002
sS'C1,O2'
p13
F2.7000000000000002
sS'O1,N3'
p14
F2.6000000000000001
sS'H2,HA2'
p15
F1.8999999999999999
sS'H2,H3'
p16
F1.8999999999999999
sS'N2,N3'
p17
F2.6000000000000001
sS'CA1,H3'
p18
F2.2000000000000002
sS'C1,HA2'
p19
F2.2000000000000002
sS'O1,H3'
p20
F2.2000000000000002
sS'HA2,N3'
p21
F2.2000000000000002
sS'N2,H3'
p22
F2.2000000000000002
sS'H2,N3'
p23
F2.2000000000000002
sS'HA2,H3'
p24
F1.8999999999999999
sS'H2,CB2'
p25
F2.2000000000000002
sS'CB2,O2'
p26
F2.7000000000000002
sS'C1,N3'
p27
F2.7999999999999998
sS'O1,C2'
p28
F2.7000000000000002
sS'C1,H3'
p29
F2.2000000000000002
sS'O1,CB2'
p30
F2.7000000000000002
s.